target datalayout = "e-m:e-p270:32:32-p271:32:32-p272:64:64-i64:64-i128:128-f80:128-n8:16:32:64-S128"
target triple = "x86_64-pc-linux-gnu"

%struct.utsname = type { [65 x i8], [65 x i8], [65 x i8], [65 x i8], [65 x i8], [65 x i8] }
%struct.uv_utsname_s = type { [256 x i8], [256 x i8], [256 x i8], [256 x i8] }

; Function Attrs: nounwind uwtable
define dso_local i32 @uv_os_uname(ptr noundef %0) #0 {
  %2 = alloca i32, align 4
  %3 = alloca ptr, align 8
  %4 = alloca %struct.utsname, align 1
  %5 = alloca i32, align 4
  %6 = alloca i32, align 4
  store ptr %0, ptr %3, align 8
  call void @llvm.lifetime.start.p0(i64 390, ptr %4) #11
  call void @llvm.lifetime.start.p0(i64 4, ptr %5) #11
  %7 = load ptr, ptr %3, align 8
  %8 = icmp eq ptr %7, null
  br i1 %8, label %9, label %10

9:                                                ; preds = %1
  store i32 -22, ptr %2, align 4
  store i32 1, ptr %6, align 4
  br label %76

10:                                               ; preds = %1
  %11 = call i32 @uname(ptr noundef %4) #11
  %12 = icmp eq i32 %11, -1
  br i1 %12, label %13, label %17

13:                                               ; preds = %10
  %14 = call ptr @__errno_location() #12
  %15 = load i32, ptr %14, align 4
  %16 = sub nsw i32 0, %15
  store i32 %16, ptr %5, align 4
  br label %62

17:                                               ; preds = %10
  %18 = load ptr, ptr %3, align 8
  %19 = getelementptr inbounds nuw %struct.uv_utsname_s, ptr %18, i32 0, i32 0
  %20 = getelementptr inbounds [256 x i8], ptr %19, i64 0, i64 0
  %21 = getelementptr inbounds nuw %struct.utsname, ptr %4, i32 0, i32 0
  %22 = getelementptr inbounds [65 x i8], ptr %21, i64 0, i64 0
  %23 = call i64 @uv__strscpy(ptr noundef %20, ptr noundef %22, i64 noundef 256)
  %24 = trunc i64 %23 to i32
  store i32 %24, ptr %5, align 4
  %25 = load i32, ptr %5, align 4
  %26 = icmp eq i32 %25, -7
  br i1 %26, label %27, label %28

27:                                               ; preds = %17
  br label %62

28:                                               ; preds = %17
  %29 = load ptr, ptr %3, align 8
  %30 = getelementptr inbounds nuw %struct.uv_utsname_s, ptr %29, i32 0, i32 1
  %31 = getelementptr inbounds [256 x i8], ptr %30, i64 0, i64 0
  %32 = getelementptr inbounds nuw %struct.utsname, ptr %4, i32 0, i32 2
  %33 = getelementptr inbounds [65 x i8], ptr %32, i64 0, i64 0
  %34 = call i64 @uv__strscpy(ptr noundef %31, ptr noundef %33, i64 noundef 256)
  %35 = trunc i64 %34 to i32
  store i32 %35, ptr %5, align 4
  %36 = load i32, ptr %5, align 4
  %37 = icmp eq i32 %36, -7
  br i1 %37, label %38, label %39

38:                                               ; preds = %28
  br label %62

39:                                               ; preds = %28
  %40 = load ptr, ptr %3, align 8
  %41 = getelementptr inbounds nuw %struct.uv_utsname_s, ptr %40, i32 0, i32 2
  %42 = getelementptr inbounds [256 x i8], ptr %41, i64 0, i64 0
  %43 = getelementptr inbounds nuw %struct.utsname, ptr %4, i32 0, i32 3
  %44 = getelementptr inbounds [65 x i8], ptr %43, i64 0, i64 0
  %45 = call i64 @uv__strscpy(ptr noundef %42, ptr noundef %44, i64 noundef 256)
  %46 = trunc i64 %45 to i32
  store i32 %46, ptr %5, align 4
  %47 = load i32, ptr %5, align 4
  %48 = icmp eq i32 %47, -7
  br i1 %48, label %49, label %50

49:                                               ; preds = %39
  br label %62

50:                                               ; preds = %39
  %51 = load ptr, ptr %3, align 8
  %52 = getelementptr inbounds nuw %struct.uv_utsname_s, ptr %51, i32 0, i32 3
  %53 = getelementptr inbounds [256 x i8], ptr %52, i64 0, i64 0
  %54 = getelementptr inbounds nuw %struct.utsname, ptr %4, i32 0, i32 4
  %55 = getelementptr inbounds [65 x i8], ptr %54, i64 0, i64 0
  %56 = call i64 @uv__strscpy(ptr noundef %53, ptr noundef %55, i64 noundef 256)
  %57 = trunc i64 %56 to i32
  store i32 %57, ptr %5, align 4
  %58 = load i32, ptr %5, align 4
  %59 = icmp eq i32 %58, -7
  br i1 %59, label %60, label %61

60:                                               ; preds = %50
  br label %62

61:                                               ; preds = %50
  store i32 0, ptr %2, align 4
  store i32 1, ptr %6, align 4
  br label %76

62:                                               ; preds = %60, %49, %38, %27, %13
  %63 = load ptr, ptr %3, align 8
  %64 = getelementptr inbounds nuw %struct.uv_utsname_s, ptr %63, i32 0, i32 0
  %65 = getelementptr inbounds [256 x i8], ptr %64, i64 0, i64 0
  store i8 0, ptr %65, align 1
  %66 = load ptr, ptr %3, align 8
  %67 = getelementptr inbounds nuw %struct.uv_utsname_s, ptr %66, i32 0, i32 1
  %68 = getelementptr inbounds [256 x i8], ptr %67, i64 0, i64 0
  store i8 0, ptr %68, align 1
  %69 = load ptr, ptr %3, align 8
  %70 = getelementptr inbounds nuw %struct.uv_utsname_s, ptr %69, i32 0, i32 2
  %71 = getelementptr inbounds [256 x i8], ptr %70, i64 0, i64 0
  store i8 0, ptr %71, align 1
  %72 = load ptr, ptr %3, align 8
  %73 = getelementptr inbounds nuw %struct.uv_utsname_s, ptr %72, i32 0, i32 3
  %74 = getelementptr inbounds [256 x i8], ptr %73, i64 0, i64 0
  store i8 0, ptr %74, align 1
  %75 = load i32, ptr %5, align 4
  store i32 %75, ptr %2, align 4
  store i32 1, ptr %6, align 4
  br label %76

76:                                               ; preds = %62, %61, %9
  call void @llvm.lifetime.end.p0(i64 4, ptr %5) #11
  call void @llvm.lifetime.end.p0(i64 390, ptr %4) #11
  %77 = load i32, ptr %2, align 4
  ret i32 %77
}