; Function Attrs: nounwind uwtable
define dso_local range(i32 -2147483647, -2147483648) i32 @uv_os_uname(ptr noundef %0) local_unnamed_addr #0 {
  %2 = alloca %struct.utsname, align 1
  call void @llvm.lifetime.start.p0(i64 390, ptr nonnull %2) #23
  %3 = icmp eq ptr %0, null
  br i1 %3, label %37, label %4

4:                                                ; preds = %1
  %5 = call i32 @uname(ptr noundef nonnull %2) #23
  %6 = icmp eq i32 %5, -1
  br i1 %6, label %7, label %11

7:                                                ; preds = %4
  %8 = tail call ptr @__errno_location() #24
  %9 = load i32, ptr %8, align 4
  %10 = sub nsw i32 0, %9
  br label %33

11:                                               ; preds = %4
  %12 = call i64 @uv__strscpy(ptr noundef nonnull %0, ptr noundef nonnull %2, i64 noundef 256) #23
  %13 = and i64 %12, 4294967295
  %14 = icmp eq i64 %13, 4294967289
  br i1 %14, label %33, label %15

15:                                               ; preds = %11
  %16 = getelementptr inbounds nuw i8, ptr %0, i64 256
  %17 = getelementptr inbounds nuw i8, ptr %2, i64 130
  %18 = call i64 @uv__strscpy(ptr noundef nonnull %16, ptr noundef nonnull %17, i64 noundef 256) #23
  %19 = and i64 %18, 4294967295
  %20 = icmp eq i64 %19, 4294967289
  br i1 %20, label %33, label %21

21:                                               ; preds = %15
  %22 = getelementptr inbounds nuw i8, ptr %0, i64 512
  %23 = getelementptr inbounds nuw i8, ptr %2, i64 195
  %24 = call i64 @uv__strscpy(ptr noundef nonnull %22, ptr noundef nonnull %23, i64 noundef 256) #23
  %25 = and i64 %24, 4294967295
  %26 = icmp eq i64 %25, 4294967289
  br i1 %26, label %33, label %27

27:                                               ; preds = %21
  %28 = getelementptr inbounds nuw i8, ptr %0, i64 768
  %29 = getelementptr inbounds nuw i8, ptr %2, i64 260
  %30 = call i64 @uv__strscpy(ptr noundef nonnull %28, ptr noundef nonnull %29, i64 noundef 256) #23
  %31 = and i64 %30, 4294967295
  %32 = icmp eq i64 %31, 4294967289
  br i1 %32, label %33, label %37

33:                                               ; preds = %27, %21, %15, %11, %7
  %.0 = phi i32 [ %10, %7 ], [ -7, %11 ], [ -7, %15 ], [ -7, %21 ], [ -7, %27 ]
  store i8 0, ptr %0, align 1
  %34 = getelementptr inbounds nuw i8, ptr %0, i64 256
  store i8 0, ptr %34, align 1
  %35 = getelementptr inbounds nuw i8, ptr %0, i64 512
  store i8 0, ptr %35, align 1
  %36 = getelementptr inbounds nuw i8, ptr %0, i64 768
  store i8 0, ptr %36, align 1
  br label %37

37:                                               ; preds = %27, %1, %33
  %.014 = phi i32 [ %.0, %33 ], [ -22, %1 ], [ 0, %27 ]
  call void @llvm.lifetime.end.p0(i64 390, ptr nonnull %2) #23
  ret i32 %.014
}